target datalayout = "e-m:e-p270:32:32-p271:32:32-p272:64:64-i64:64-i128:128-f80:128-n8:16:32:64-S128"
target triple = "x86_64-pc-linux-gnu"

%class.mpz = type { i32, i8, ptr }
%class.mpbq = type <{ %class.mpz, i32, [4 x i8] }>
%class.mpbq_manager = type { ptr, %class.mpz, %class.mpz, %class.mpbq, %class.mpz, %class.mpz, %class.mpz, %class.mpbq, %class.mpbq, %class.mpz, %class.mpz, %class.mpz }

; Function Attrs: inlinehint mustprogress nounwind uwtable
define linkonce_odr hidden noundef zeroext i1 @_ZNK3mpz8is_smallEv(ptr noundef nonnull align 8 dereferenceable(16) %0) #9 comdat align 2 {
  %2 = alloca ptr, align 8
  store ptr %0, ptr %2, align 8, !tbaa !10
  %3 = load ptr, ptr %2, align 8
  %4 = getelementptr inbounds nuw %class.mpz, ptr %3, i32 0, i32 1
  %5 = load i8, ptr %4, align 4
  %6 = and i8 %5, 1
  %7 = zext i8 %6 to i32
  %8 = icmp eq i32 %7, 0
  ret i1 %8
}

; Function Attrs: mustprogress nounwind uwtable
define linkonce_odr hidden noundef i32 @_ZN11mpz_managerILb0EE4signERK3mpz(ptr noundef nonnull align 8 dereferenceable(16) %0) #6 comdat align 2 {
  %2 = alloca ptr, align 8
  store ptr %0, ptr %2, align 8, !tbaa !10
  %3 = load ptr, ptr %2, align 8, !tbaa !10
  %4 = getelementptr inbounds nuw %class.mpz, ptr %3, i32 0, i32 0
  %5 = load i32, ptr %4, align 8, !tbaa !24
  ret i32 %5
}

; Function Attrs: mustprogress nounwind uwtable
define linkonce_odr hidden void @_ZN3mpz3setEi(ptr noundef nonnull align 8 dereferenceable(16) %0, i32 noundef %1) #6 comdat align 2 {
  %3 = alloca ptr, align 8
  %4 = alloca i32, align 4
  store ptr %0, ptr %3, align 8, !tbaa !10
  store i32 %1, ptr %4, align 4, !tbaa !12
  %5 = load ptr, ptr %3, align 8
  %6 = load i32, ptr %4, align 4, !tbaa !12
  %7 = getelementptr inbounds nuw %class.mpz, ptr %5, i32 0, i32 0
  store i32 %6, ptr %7, align 8, !tbaa !24
  %8 = getelementptr inbounds nuw %class.mpz, ptr %5, i32 0, i32 1
  %9 = load i8, ptr %8, align 4
  %10 = and i8 %9, -2
  %11 = or i8 %10, 0
  store i8 %11, ptr %8, align 4
  ret void
}

; Function Attrs: inlinehint mustprogress nounwind uwtable
define linkonce_odr hidden noundef i32 @_ZNK3mpz5valueEv(ptr noundef nonnull align 8 dereferenceable(16) %0) #9 comdat align 2 {
  %2 = alloca ptr, align 8
  store ptr %0, ptr %2, align 8, !tbaa !10
  %3 = load ptr, ptr %2, align 8
  %4 = getelementptr inbounds nuw %class.mpz, ptr %3, i32 0, i32 0
  %5 = load i32, ptr %4, align 8, !tbaa !24
  ret i32 %5
}

; Function Attrs: mustprogress nounwind uwtable
define linkonce_odr hidden noundef zeroext i1 @_ZN11mpz_managerILb0EE8is_smallERK3mpz(ptr noundef nonnull align 8 dereferenceable(16) %0) #6 comdat align 2 {
  %2 = alloca ptr, align 8
  store ptr %0, ptr %2, align 8, !tbaa !10
  %3 = load ptr, ptr %2, align 8, !tbaa !10
  %4 = call noundef zeroext i1 @_ZNK3mpz8is_smallEv(ptr noundef nonnull align 8 dereferenceable(16) %3)
  ret i1 %4
}

; Function Attrs: mustprogress uwtable
define linkonce_odr hidden noundef zeroext i1 @_ZN11mpz_managerILb0EE7is_zeroERK3mpz(ptr noundef nonnull align 8 dereferenceable(16) %0) #4 comdat align 2 {
  %2 = alloca ptr, align 8
  store ptr %0, ptr %2, align 8, !tbaa !10
  %3 = load ptr, ptr %2, align 8, !tbaa !10
  %4 = call noundef i32 @_ZN11mpz_managerILb0EE4signERK3mpz(ptr noundef nonnull align 8 dereferenceable(16) %3)
  %5 = icmp eq i32 %4, 0
  ret i1 %5
}

; Function Attrs: mustprogress uwtable
define linkonce_odr hidden void @_ZN11mpz_managerILb0EE3setER3mpzRKS1_(ptr noundef nonnull align 8 dereferenceable(600) %0, ptr noundef nonnull align 8 dereferenceable(16) %1, ptr noundef nonnull align 8 dereferenceable(16) %2) #4 comdat align 2 {
  %4 = alloca ptr, align 8
  %5 = alloca ptr, align 8
  %6 = alloca ptr, align 8
  store ptr %0, ptr %4, align 8, !tbaa !22
  store ptr %1, ptr %5, align 8, !tbaa !10
  store ptr %2, ptr %6, align 8, !tbaa !10
  %7 = load ptr, ptr %4, align 8
  %8 = load ptr, ptr %6, align 8, !tbaa !10
  %9 = call noundef zeroext i1 @_ZN11mpz_managerILb0EE8is_smallERK3mpz(ptr noundef nonnull align 8 dereferenceable(16) %8)
  br i1 %9, label %10, label %14

10:                                               ; preds = %3
  %11 = load ptr, ptr %5, align 8, !tbaa !10
  %12 = load ptr, ptr %6, align 8, !tbaa !10
  %13 = call noundef i32 @_ZNK3mpz5valueEv(ptr noundef nonnull align 8 dereferenceable(16) %12)
  call void @_ZN3mpz3setEi(ptr noundef nonnull align 8 dereferenceable(16) %11, i32 noundef %13)
  br label %17

14:                                               ; preds = %3
  %15 = load ptr, ptr %5, align 8, !tbaa !10
  %16 = load ptr, ptr %6, align 8, !tbaa !10
  call void @_ZN11mpz_managerILb0EE7big_setER3mpzRKS1_(ptr noundef nonnull align 8 dereferenceable(600) %7, ptr noundef nonnull align 8 dereferenceable(16) %15, ptr noundef nonnull align 8 dereferenceable(16) %16)
  br label %17

17:                                               ; preds = %14, %10
  ret void
}

; Function Attrs: mustprogress uwtable
define hidden void @_ZN12mpbq_manager9normalizeER4mpbq(ptr noundef nonnull align 8 dereferenceable(208) %0, ptr noundef nonnull align 8 dereferenceable(20) %1) #4 align 2 {
  %3 = alloca ptr, align 8
  %4 = alloca ptr, align 8
  %5 = alloca i32, align 4
  store ptr %0, ptr %3, align 8, !tbaa !20
  store ptr %1, ptr %4, align 8, !tbaa !3
  %6 = load ptr, ptr %3, align 8
  %7 = load ptr, ptr %4, align 8, !tbaa !3
  %8 = getelementptr inbounds nuw %class.mpbq, ptr %7, i32 0, i32 1
  %9 = load i32, ptr %8, align 8, !tbaa !14
  %10 = icmp eq i32 %9, 0
  br i1 %10, label %11, label %12

11:                                               ; preds = %2
  br label %45

12:                                               ; preds = %2
  %13 = load ptr, ptr %4, align 8, !tbaa !3
  %14 = getelementptr inbounds nuw %class.mpbq, ptr %13, i32 0, i32 0
  %15 = call noundef zeroext i1 @_ZN11mpz_managerILb0EE7is_zeroERK3mpz(ptr noundef nonnull align 8 dereferenceable(16) %14)
  br i1 %15, label %16, label %19

16:                                               ; preds = %12
  %17 = load ptr, ptr %4, align 8, !tbaa !3
  %18 = getelementptr inbounds nuw %class.mpbq, ptr %17, i32 0, i32 1
  store i32 0, ptr %18, align 8, !tbaa !14
  br label %45

19:                                               ; preds = %12
  call void @llvm.lifetime.start.p0(i64 4, ptr %5) #3
  %20 = getelementptr inbounds nuw %class.mpbq_manager, ptr %6, i32 0, i32 0
  %21 = load ptr, ptr %20, align 8, !tbaa !26
  %22 = load ptr, ptr %4, align 8, !tbaa !3
  %23 = getelementptr inbounds nuw %class.mpbq, ptr %22, i32 0, i32 0
  %24 = call noundef i32 @_ZN11mpz_managerILb0EE21power_of_two_multipleERK3mpz(ptr noundef nonnull align 8 dereferenceable(600) %21, ptr noundef nonnull align 8 dereferenceable(16) %23)
  store i32 %24, ptr %5, align 4, !tbaa !12
  %25 = load i32, ptr %5, align 4, !tbaa !12
  %26 = load ptr, ptr %4, align 8, !tbaa !3
  %27 = getelementptr inbounds nuw %class.mpbq, ptr %26, i32 0, i32 1
  %28 = load i32, ptr %27, align 8, !tbaa !14
  %29 = icmp ugt i32 %25, %28
  br i1 %29, label %30, label %34

30:                                               ; preds = %19
  %31 = load ptr, ptr %4, align 8, !tbaa !3
  %32 = getelementptr inbounds nuw %class.mpbq, ptr %31, i32 0, i32 1
  %33 = load i32, ptr %32, align 8, !tbaa !14
  store i32 %33, ptr %5, align 4, !tbaa !12
  br label %34

34:                                               ; preds = %30, %19
  %35 = getelementptr inbounds nuw %class.mpbq_manager, ptr %6, i32 0, i32 0
  %36 = load ptr, ptr %35, align 8, !tbaa !26
  %37 = load ptr, ptr %4, align 8, !tbaa !3
  %38 = getelementptr inbounds nuw %class.mpbq, ptr %37, i32 0, i32 0
  %39 = load i32, ptr %5, align 4, !tbaa !12
  call void @_ZN11mpz_managerILb0EE13machine_div2kER3mpzj(ptr noundef nonnull align 8 dereferenceable(600) %36, ptr noundef nonnull align 8 dereferenceable(16) %38, i32 noundef %39)
  %40 = load i32, ptr %5, align 4, !tbaa !12
  %41 = load ptr, ptr %4, align 8, !tbaa !3
  %42 = getelementptr inbounds nuw %class.mpbq, ptr %41, i32 0, i32 1
  %43 = load i32, ptr %42, align 8, !tbaa !14
  %44 = sub i32 %43, %40
  store i32 %44, ptr %42, align 8, !tbaa !14
  call void @llvm.lifetime.end.p0(i64 4, ptr %5) #3
  br label %45

45:                                               ; preds = %34, %16, %11
  ret void
}

; Function Attrs: mustprogress uwtable
define linkonce_odr hidden void @_ZN11mpz_managerILb0EE5mul2kERK3mpzjRS1_(ptr noundef nonnull align 8 dereferenceable(600) %0, ptr noundef nonnull align 8 dereferenceable(16) %1, i32 noundef %2, ptr noundef nonnull align 8 dereferenceable(16) %3) #4 comdat align 2 {
  %5 = alloca ptr, align 8
  %6 = alloca ptr, align 8
  %7 = alloca i32, align 4
  %8 = alloca ptr, align 8
  store ptr %0, ptr %5, align 8, !tbaa !22
  store ptr %1, ptr %6, align 8, !tbaa !10
  store i32 %2, ptr %7, align 4, !tbaa !12
  store ptr %3, ptr %8, align 8, !tbaa !10
  %9 = load ptr, ptr %5, align 8
  %10 = load ptr, ptr %8, align 8, !tbaa !10
  %11 = load ptr, ptr %6, align 8, !tbaa !10
  call void @_ZN11mpz_managerILb0EE3setER3mpzRKS1_(ptr noundef nonnull align 8 dereferenceable(600) %9, ptr noundef nonnull align 8 dereferenceable(16) %10, ptr noundef nonnull align 8 dereferenceable(16) %11)
  %12 = load ptr, ptr %8, align 8, !tbaa !10
  %13 = load i32, ptr %7, align 4, !tbaa !12
  call void @_ZN11mpz_managerILb0EE5mul2kER3mpzj(ptr noundef nonnull align 8 dereferenceable(600) %9, ptr noundef nonnull align 8 dereferenceable(16) %12, i32 noundef %13)
  ret void
}

; Function Attrs: mustprogress uwtable
define hidden void @_ZN12mpbq_manager3subERK4mpbqS2_RS0_(ptr noundef nonnull align 8 dereferenceable(208) %0, ptr noundef nonnull align 8 dereferenceable(20) %1, ptr noundef nonnull align 8 dereferenceable(20) %2, ptr noundef nonnull align 8 dereferenceable(20) %3) #4 align 2 {
  %5 = alloca ptr, align 8
  %6 = alloca ptr, align 8
  %7 = alloca ptr, align 8
  %8 = alloca ptr, align 8
  store ptr %0, ptr %5, align 8, !tbaa !20
  store ptr %1, ptr %6, align 8, !tbaa !3
  store ptr %2, ptr %7, align 8, !tbaa !3
  store ptr %3, ptr %8, align 8, !tbaa !3
  %9 = load ptr, ptr %5, align 8
  %10 = load ptr, ptr %6, align 8, !tbaa !3
  %11 = getelementptr inbounds nuw %class.mpbq, ptr %10, i32 0, i32 1
  %12 = load i32, ptr %11, align 8, !tbaa !14
  %13 = load ptr, ptr %7, align 8, !tbaa !3
  %14 = getelementptr inbounds nuw %class.mpbq, ptr %13, i32 0, i32 1
  %15 = load i32, ptr %14, align 8, !tbaa !14
  %16 = icmp eq i32 %12, %15
  br i1 %16, label %17, label %31

17:                                               ; preds = %4
  %18 = getelementptr inbounds nuw %class.mpbq_manager, ptr %9, i32 0, i32 0
  %19 = load ptr, ptr %18, align 8, !tbaa !26
  %20 = load ptr, ptr %6, align 8, !tbaa !3
  %21 = getelementptr inbounds nuw %class.mpbq, ptr %20, i32 0, i32 0
  %22 = load ptr, ptr %7, align 8, !tbaa !3
  %23 = getelementptr inbounds nuw %class.mpbq, ptr %22, i32 0, i32 0
  %24 = load ptr, ptr %8, align 8, !tbaa !3
  %25 = getelementptr inbounds nuw %class.mpbq, ptr %24, i32 0, i32 0
  call void @_ZN11mpz_managerILb0EE3subERK3mpzS3_RS1_(ptr noundef nonnull align 8 dereferenceable(600) %19, ptr noundef nonnull align 8 dereferenceable(16) %21, ptr noundef nonnull align 8 dereferenceable(16) %23, ptr noundef nonnull align 8 dereferenceable(16) %25)
  %26 = load ptr, ptr %6, align 8, !tbaa !3
  %27 = getelementptr inbounds nuw %class.mpbq, ptr %26, i32 0, i32 1
  %28 = load i32, ptr %27, align 8, !tbaa !14
  %29 = load ptr, ptr %8, align 8, !tbaa !3
  %30 = getelementptr inbounds nuw %class.mpbq, ptr %29, i32 0, i32 1
  store i32 %28, ptr %30, align 8, !tbaa !14
  br label %90

31:                                               ; preds = %4
  %32 = load ptr, ptr %6, align 8, !tbaa !3
  %33 = getelementptr inbounds nuw %class.mpbq, ptr %32, i32 0, i32 1
  %34 = load i32, ptr %33, align 8, !tbaa !14
  %35 = load ptr, ptr %7, align 8, !tbaa !3
  %36 = getelementptr inbounds nuw %class.mpbq, ptr %35, i32 0, i32 1
  %37 = load i32, ptr %36, align 8, !tbaa !14
  %38 = icmp ult i32 %34, %37
  br i1 %38, label %39, label %64

39:                                               ; preds = %31
  %40 = getelementptr inbounds nuw %class.mpbq_manager, ptr %9, i32 0, i32 0
  %41 = load ptr, ptr %40, align 8, !tbaa !26
  %42 = load ptr, ptr %6, align 8, !tbaa !3
  %43 = getelementptr inbounds nuw %class.mpbq, ptr %42, i32 0, i32 0
  %44 = load ptr, ptr %7, align 8, !tbaa !3
  %45 = getelementptr inbounds nuw %class.mpbq, ptr %44, i32 0, i32 1
  %46 = load i32, ptr %45, align 8, !tbaa !14
  %47 = load ptr, ptr %6, align 8, !tbaa !3
  %48 = getelementptr inbounds nuw %class.mpbq, ptr %47, i32 0, i32 1
  %49 = load i32, ptr %48, align 8, !tbaa !14
  %50 = sub i32 %46, %49
  %51 = getelementptr inbounds nuw %class.mpbq_manager, ptr %9, i32 0, i32 1
  call void @_ZN11mpz_managerILb0EE5mul2kERK3mpzjRS1_(ptr noundef nonnull align 8 dereferenceable(600) %41, ptr noundef nonnull align 8 dereferenceable(16) %43, i32 noundef %50, ptr noundef nonnull align 8 dereferenceable(16) %51)
  %52 = getelementptr inbounds nuw %class.mpbq_manager, ptr %9, i32 0, i32 0
  %53 = load ptr, ptr %52, align 8, !tbaa !26
  %54 = getelementptr inbounds nuw %class.mpbq_manager, ptr %9, i32 0, i32 1
  %55 = load ptr, ptr %7, align 8, !tbaa !3
  %56 = getelementptr inbounds nuw %class.mpbq, ptr %55, i32 0, i32 0
  %57 = load ptr, ptr %8, align 8, !tbaa !3
  %58 = getelementptr inbounds nuw %class.mpbq, ptr %57, i32 0, i32 0
  call void @_ZN11mpz_managerILb0EE3subERK3mpzS3_RS1_(ptr noundef nonnull align 8 dereferenceable(600) %53, ptr noundef nonnull align 8 dereferenceable(16) %54, ptr noundef nonnull align 8 dereferenceable(16) %56, ptr noundef nonnull align 8 dereferenceable(16) %58)
  %59 = load ptr, ptr %7, align 8, !tbaa !3
  %60 = getelementptr inbounds nuw %class.mpbq, ptr %59, i32 0, i32 1
  %61 = load i32, ptr %60, align 8, !tbaa !14
  %62 = load ptr, ptr %8, align 8, !tbaa !3
  %63 = getelementptr inbounds nuw %class.mpbq, ptr %62, i32 0, i32 1
  store i32 %61, ptr %63, align 8, !tbaa !14
  br label %89

64:                                               ; preds = %31
  %65 = getelementptr inbounds nuw %class.mpbq_manager, ptr %9, i32 0, i32 0
  %66 = load ptr, ptr %65, align 8, !tbaa !26
  %67 = load ptr, ptr %7, align 8, !tbaa !3
  %68 = getelementptr inbounds nuw %class.mpbq, ptr %67, i32 0, i32 0
  %69 = load ptr, ptr %6, align 8, !tbaa !3
  %70 = getelementptr inbounds nuw %class.mpbq, ptr %69, i32 0, i32 1
  %71 = load i32, ptr %70, align 8, !tbaa !14
  %72 = load ptr, ptr %7, align 8, !tbaa !3
  %73 = getelementptr inbounds nuw %class.mpbq, ptr %72, i32 0, i32 1
  %74 = load i32, ptr %73, align 8, !tbaa !14
  %75 = sub i32 %71, %74
  %76 = getelementptr inbounds nuw %class.mpbq_manager, ptr %9, i32 0, i32 1
  call void @_ZN11mpz_managerILb0EE5mul2kERK3mpzjRS1_(ptr noundef nonnull align 8 dereferenceable(600) %66, ptr noundef nonnull align 8 dereferenceable(16) %68, i32 noundef %75, ptr noundef nonnull align 8 dereferenceable(16) %76)
  %77 = getelementptr inbounds nuw %class.mpbq_manager, ptr %9, i32 0, i32 0
  %78 = load ptr, ptr %77, align 8, !tbaa !26
  %79 = load ptr, ptr %6, align 8, !tbaa !3
  %80 = getelementptr inbounds nuw %class.mpbq, ptr %79, i32 0, i32 0
  %81 = getelementptr inbounds nuw %class.mpbq_manager, ptr %9, i32 0, i32 1
  %82 = load ptr, ptr %8, align 8, !tbaa !3
  %83 = getelementptr inbounds nuw %class.mpbq, ptr %82, i32 0, i32 0
  call void @_ZN11mpz_managerILb0EE3subERK3mpzS3_RS1_(ptr noundef nonnull align 8 dereferenceable(600) %78, ptr noundef nonnull align 8 dereferenceable(16) %80, ptr noundef nonnull align 8 dereferenceable(16) %81, ptr noundef nonnull align 8 dereferenceable(16) %83)
  %84 = load ptr, ptr %6, align 8, !tbaa !3
  %85 = getelementptr inbounds nuw %class.mpbq, ptr %84, i32 0, i32 1
  %86 = load i32, ptr %85, align 8, !tbaa !14
  %87 = load ptr, ptr %8, align 8, !tbaa !3
  %88 = getelementptr inbounds nuw %class.mpbq, ptr %87, i32 0, i32 1
  store i32 %86, ptr %88, align 8, !tbaa !14
  br label %89

89:                                               ; preds = %64, %39
  br label %90

90:                                               ; preds = %89, %17
  %91 = load ptr, ptr %8, align 8, !tbaa !3
  call void @_ZN12mpbq_manager9normalizeER4mpbq(ptr noundef nonnull align 8 dereferenceable(208) %9, ptr noundef nonnull align 8 dereferenceable(20) %91)
  ret void
}