; Function Attrs: mustprogress uwtable
define hidden void @_ZN12mpbq_manager3subERK4mpbqS2_RS0_(ptr noundef nonnull align 8 dereferenceable(208) %0, ptr noundef nonnull align 8 dereferenceable(20) %1, ptr noundef nonnull align 8 dereferenceable(20) %2, ptr noundef nonnull align 8 dereferenceable(20) %3) local_unnamed_addr #3 align 2 {
  %5 = getelementptr inbounds nuw i8, ptr %1, i64 16
  %6 = load i32, ptr %5, align 8, !tbaa !13
  %7 = getelementptr inbounds nuw i8, ptr %2, i64 16
  %8 = load i32, ptr %7, align 8, !tbaa !13
  %9 = icmp eq i32 %6, %8
  br i1 %9, label %10, label %12

10:                                               ; preds = %4
  %11 = load ptr, ptr %0, align 8, !tbaa !26
  tail call void @_ZN11mpz_managerILb0EE3subERK3mpzS3_RS1_(ptr noundef nonnull align 8 dereferenceable(600) %11, ptr noundef nonnull align 8 dereferenceable(16) %1, ptr noundef nonnull align 8 dereferenceable(16) %2, ptr noundef nonnull align 8 dereferenceable(16) %3)
  br label %42

12:                                               ; preds = %4
  %13 = icmp ult i32 %6, %8
  %14 = load ptr, ptr %0, align 8, !tbaa !26
  %15 = getelementptr inbounds nuw i8, ptr %0, i64 8
  br i1 %13, label %16, label %29

16:                                               ; preds = %12
  %17 = sub nuw i32 %8, %6
  %18 = getelementptr inbounds nuw i8, ptr %1, i64 4
  %19 = load i8, ptr %18, align 4
  %20 = and i8 %19, 1
  %21 = icmp eq i8 %20, 0
  br i1 %21, label %22, label %27

22:                                               ; preds = %16
  %23 = load i32, ptr %1, align 8, !tbaa !3
  store i32 %23, ptr %15, align 8, !tbaa !3
  %24 = getelementptr inbounds nuw i8, ptr %0, i64 12
  %25 = load i8, ptr %24, align 4
  %26 = and i8 %25, -2
  store i8 %26, ptr %24, align 4
  br label %_ZN11mpz_managerILb0EE5mul2kERK3mpzjRS1_.exit

27:                                               ; preds = %16
  tail call void @_ZN11mpz_managerILb0EE7big_setER3mpzRKS1_(ptr noundef nonnull align 8 dereferenceable(600) %14, ptr noundef nonnull align 8 dereferenceable(16) %15, ptr noundef nonnull align 8 dereferenceable(16) %1)
  br label %_ZN11mpz_managerILb0EE5mul2kERK3mpzjRS1_.exit

_ZN11mpz_managerILb0EE5mul2kERK3mpzjRS1_.exit:    ; preds = %22, %27
  tail call void @_ZN11mpz_managerILb0EE5mul2kER3mpzj(ptr noundef nonnull align 8 dereferenceable(600) %14, ptr noundef nonnull align 8 dereferenceable(16) %15, i32 noundef %17)
  %28 = load ptr, ptr %0, align 8, !tbaa !26
  tail call void @_ZN11mpz_managerILb0EE3subERK3mpzS3_RS1_(ptr noundef nonnull align 8 dereferenceable(600) %28, ptr noundef nonnull align 8 dereferenceable(16) %15, ptr noundef nonnull align 8 dereferenceable(16) %2, ptr noundef nonnull align 8 dereferenceable(16) %3)
  br label %42

29:                                               ; preds = %12
  %30 = sub nuw i32 %6, %8
  %31 = getelementptr inbounds nuw i8, ptr %2, i64 4
  %32 = load i8, ptr %31, align 4
  %33 = and i8 %32, 1
  %34 = icmp eq i8 %33, 0
  br i1 %34, label %35, label %40

35:                                               ; preds = %29
  %36 = load i32, ptr %2, align 8, !tbaa !3
  store i32 %36, ptr %15, align 8, !tbaa !3
  %37 = getelementptr inbounds nuw i8, ptr %0, i64 12
  %38 = load i8, ptr %37, align 4
  %39 = and i8 %38, -2
  store i8 %39, ptr %37, align 4
  br label %_ZN11mpz_managerILb0EE5mul2kERK3mpzjRS1_.exit26

40:                                               ; preds = %29
  tail call void @_ZN11mpz_managerILb0EE7big_setER3mpzRKS1_(ptr noundef nonnull align 8 dereferenceable(600) %14, ptr noundef nonnull align 8 dereferenceable(16) %15, ptr noundef nonnull align 8 dereferenceable(16) %2)
  br label %_ZN11mpz_managerILb0EE5mul2kERK3mpzjRS1_.exit26

_ZN11mpz_managerILb0EE5mul2kERK3mpzjRS1_.exit26:  ; preds = %35, %40
  tail call void @_ZN11mpz_managerILb0EE5mul2kER3mpzj(ptr noundef nonnull align 8 dereferenceable(600) %14, ptr noundef nonnull align 8 dereferenceable(16) %15, i32 noundef %30)
  %41 = load ptr, ptr %0, align 8, !tbaa !26
  tail call void @_ZN11mpz_managerILb0EE3subERK3mpzS3_RS1_(ptr noundef nonnull align 8 dereferenceable(600) %41, ptr noundef nonnull align 8 dereferenceable(16) %1, ptr noundef nonnull align 8 dereferenceable(16) %15, ptr noundef nonnull align 8 dereferenceable(16) %3)
  br label %42

42:                                               ; preds = %_ZN11mpz_managerILb0EE5mul2kERK3mpzjRS1_.exit, %_ZN11mpz_managerILb0EE5mul2kERK3mpzjRS1_.exit26, %10
  %.sink.in = phi ptr [ %7, %_ZN11mpz_managerILb0EE5mul2kERK3mpzjRS1_.exit ], [ %5, %_ZN11mpz_managerILb0EE5mul2kERK3mpzjRS1_.exit26 ], [ %5, %10 ]
  %.sink = load i32, ptr %.sink.in, align 8, !tbaa !13
  %43 = getelementptr inbounds nuw i8, ptr %3, i64 16
  store i32 %.sink, ptr %43, align 8, !tbaa !13
  %44 = getelementptr inbounds nuw i8, ptr %3, i64 16
  %45 = icmp eq i32 %.sink, 0
  br i1 %45, label %_ZN12mpbq_manager9normalizeER4mpbq.exit, label %46

46:                                               ; preds = %42
  %47 = load i32, ptr %3, align 8, !tbaa !3
  %48 = icmp eq i32 %47, 0
  br i1 %48, label %.sink.split.i, label %49

49:                                               ; preds = %46
  %50 = load ptr, ptr %0, align 8, !tbaa !26
  %51 = tail call noundef i32 @_ZN11mpz_managerILb0EE21power_of_two_multipleERK3mpz(ptr noundef nonnull align 8 dereferenceable(600) %50, ptr noundef nonnull align 8 dereferenceable(20) %3)
  %52 = load i32, ptr %44, align 8, !tbaa !13
  %spec.select.i = tail call i32 @llvm.umin.i32(i32 %51, i32 %52)
  %53 = load ptr, ptr %0, align 8, !tbaa !26
  tail call void @_ZN11mpz_managerILb0EE13machine_div2kER3mpzj(ptr noundef nonnull align 8 dereferenceable(600) %53, ptr noundef nonnull align 8 dereferenceable(20) %3, i32 noundef %spec.select.i)
  %54 = load i32, ptr %44, align 8, !tbaa !13
  %55 = sub i32 %54, %spec.select.i
  br label %.sink.split.i

.sink.split.i:                                    ; preds = %49, %46
  %.sink.i = phi i32 [ %55, %49 ], [ 0, %46 ]
  store i32 %.sink.i, ptr %44, align 8, !tbaa !13
  br label %_ZN12mpbq_manager9normalizeER4mpbq.exit

_ZN12mpbq_manager9normalizeER4mpbq.exit:          ; preds = %42, %.sink.split.i
  ret void
}